; Function Attrs: nounwind uwtable
define hidden range(i32 -26880, -2147483648) i32 @mbedtls_net_recv(ptr noundef readonly captures(none) %0, ptr noundef captures(none) %1, i64 noundef %2) local_unnamed_addr #1 {
  %4 = load i32, ptr %0, align 4, !tbaa !3
  %5 = icmp sgt i32 %4, -1
  br i1 %5, label %6, label %18

6:                                                ; preds = %3
  %7 = tail call i64 @read(i32 noundef %4, ptr noundef %1, i64 noundef %2) #9
  %8 = trunc i64 %7 to i32
  %9 = icmp slt i32 %8, 0
  br i1 %9, label %10, label %18

10:                                               ; preds = %6
  %.val = load i32, ptr %0, align 4, !tbaa !3
  %11 = tail call ptr @__errno_location() #10
  %12 = load i32, ptr %11, align 4, !tbaa !22
  %13 = tail call i32 (i32, i32, ...) @fcntl(i32 noundef %.val, i32 noundef 3) #9
  %14 = and i32 %13, 2048
  %.not.not.i = icmp eq i32 %14, 0
  %cond.i = icmp ne i32 %12, 11
  %narrow.i.not = select i1 %.not.not.i, i1 true, i1 %cond.i
  store i32 %12, ptr %11, align 4, !tbaa !22
  br i1 %narrow.i.not, label %15, label %18

15:                                               ; preds = %10
  switch i32 %12, label %17 [
    i32 32, label %18
    i32 104, label %18
    i32 4, label %16
  ]

16:                                               ; preds = %15
  br label %18

17:                                               ; preds = %15
  br label %18

18:                                               ; preds = %6, %15, %15, %10, %3, %17, %16
  %.0 = phi i32 [ -26880, %16 ], [ -76, %17 ], [ -69, %3 ], [ -26880, %10 ], [ -80, %15 ], [ -80, %15 ], [ %8, %6 ]
  ret i32 %.0
}